LIBRARY "MasterRD.dll"
EXPORTS
?AT1608_Auth@@YGGPAE0@Z	@311
?AT1608_Authenticate@@YGHGPAE0@Z	@77
?AT1608_CloseCard@@YGGXZ	@307
?AT1608_OpenCard@@YGGPAE@Z	@306
?AT1608_Read@@YGHGEGEPAE@Z	@79
?AT1608_ReadAAC@@YGGPAE@Z	@323
?AT1608_ReadAR@@YGGEPAE@Z	@321
?AT1608_ReadATR@@YGGPAE@Z	@316
?AT1608_ReadCMC@@YGGPAE@Z	@319
?AT1608_ReadChar@@YGGGGEPAE@Z	@308
?AT1608_ReadCi@@YGGPAE@Z	@327
?AT1608_ReadFC@@YGGPAE@Z	@318
?AT1608_ReadFuse1@@YGHGPAE@Z	@81
?AT1608_ReadFuse@@YGGPAE@Z	@312
?AT1608_ReadGc@@YGGPAE@Z	@329
?AT1608_ReadLHC@@YGGPAE@Z	@317
?AT1608_ReadMTZ@@YGGPAE@Z	@331
?AT1608_ReadNc@@YGGPAE@Z	@325
?AT1608_ReadPAC@@YGGEPAE@Z	@333
?AT1608_ReadPWD@@YGGEPAE@Z	@335
?AT1608_ReadValue@@YGGGEPAK@Z	@314
?AT1608_Rst@@YGHGPAE@Z	@76
?AT1608_VerifyPWD@@YGGEEEE@Z	@310
?AT1608_VerifyPassword@@YGHGEPAE@Z	@78
?AT1608_Write@@YGHGEEPAEG@Z	@80
?AT1608_WriteAAC@@YGGE@Z	@324
?AT1608_WriteAR@@YGGEE@Z	@322
?AT1608_WriteCMC@@YGGPAE@Z	@320
?AT1608_WriteChar@@YGGGGEPAE@Z	@309
?AT1608_WriteCi@@YGGPAE@Z	@328
?AT1608_WriteFuse1@@YGHG@Z	@82
?AT1608_WriteFuse@@YGGXZ	@313
?AT1608_WriteGc@@YGGPAE@Z	@330
?AT1608_WriteMTZ@@YGGPAE@Z	@332
?AT1608_WriteNc@@YGGPAE@Z	@326
?AT1608_WritePAC@@YGGEE@Z	@334
?AT1608_WritePWD@@YGGEPAE@Z	@336
?AT1608_WriteValue@@YGGGEK@Z	@315
?AT24C_CloseCard@@YGGXZ	@301
?AT24C_OpenCard@@YGGE@Z	@300
?AT24C_ReadChar@@YGGGGPAE@Z	@302
?AT24C_ReadValue@@YGGGPAK@Z	@304
?AT24C_WriteChar@@YGGGGPAE@Z	@303
?AT24C_WriteValue@@YGGGK@Z	@305
?AT24_read@@YGHGGGPAE@Z	@74
?AT24_write@@YGHGIGPAE@Z	@75
?AutoTestCard@@YGHGPAE@Z	@200
?CloseCard@@YGHG@Z	@101
?ISO15693_Get_Block_Security@@YGHGEPAEEE00@Z	@71
?ISO15693_Get_System_Information@@YGHGEPAE00@Z	@70
?ISO15693_Inventory@@YGHGPAE0@Z	@59
?ISO15693_Lock_AFI@@YGHGEPAE@Z	@67
?ISO15693_Lock_Block@@YGHGEPAEE@Z	@65
?ISO15693_Lock_DSFID@@YGHGEPAE@Z	@69
?ISO15693_Read@@YGHGEPAEEE00@Z	@63
?ISO15693_Reset_To_Ready@@YGHGEPAE@Z	@62
?ISO15693_Select@@YGHGPAE@Z	@61
?ISO15693_Stay_Quiet@@YGHGPAE@Z	@60
?ISO15693_Write@@YGHGEPAEE0@Z	@64
?ISO15693_Write_AFI@@YGHGEPAEE@Z	@66
?ISO15693_Write_DSFID@@YGHGEPAEE@Z	@68
?MCS_ExitComm@@YGGXZ	@353
?MCS_GetStringMode@@YGGPAE@Z	@351
?MCS_InitComm@@YGGEK@Z	@352
?MCS_LED@@YGGE@Z	@372
?MCS_SetStringMode@@YGGD@Z	@350
?MCS_TestDevice@@YGGXZ	@370
?MCS_TestDoor@@YGGXZ	@371
?OpenCard@@YGHG@Z	@100
?SCHelp_BytesToHexString@@YGXPAEJPAD@Z	@800
?SCHelp_HexStringToBytes@@YGJPBDPAEH@Z	@801
?des_decrypt@@YGHPAE0I0I@Z	@3
?des_encrypt@@YGHPAE0I0I@Z	@2
?lib_ver@@YGHPAI@Z	@1
?rf_ClosePort@@YGHXZ	@45
?rf_GetErrorMessage@@YGHXZ	@46
?rf_M1_authentication1@@YGHGEE@Z	@20
?rf_M1_authentication2@@YGHGEEPAE@Z	@21
?rf_M1_decrement@@YGHGEJ@Z	@26
?rf_M1_increment@@YGHGEJ@Z	@27
?rf_M1_initval@@YGHGEJ@Z	@24
?rf_M1_read@@YGHGEPAE0@Z	@22
?rf_M1_readval@@YGHGEPAJ@Z	@25
?rf_M1_restore@@YGHGE@Z	@28
?rf_M1_transfer@@YGHGE@Z	@29
?rf_M1_write@@YGHGEPAE@Z	@23
?rf_Shc1102_Auth@@YGHGPAE@Z	@360
?rf_Shc1102_Read@@YGHGEPAE0@Z	@361
?rf_Shc1102_Write@@YGHGEPAE@Z	@362
?rf_antenna_sta@@YGHGE@Z	@14
?rf_anticoll@@YGHGEPAE0@Z	@16
?rf_at020_check@@YGHGPAE@Z	@36
?rf_at020_count@@YGHGPAE@Z	@40
?rf_at020_deselect@@YGHG@Z	@41
?rf_at020_lock@@YGHGPAE@Z	@39
?rf_at020_read@@YGHGEPAE0@Z	@37
?rf_at020_write@@YGHGEPAE@Z	@38
?rf_atqb@@YGHGEPAE0@Z	@32
?rf_attrib@@YGHGKE@Z	@33
?rf_beep@@YGHGE@Z	@9
?rf_cl_deselect@@YGHG@Z	@43
?rf_cos_command@@YGHGPAEE00@Z	@31
?rf_download_key@@YGHGEPAE@Z	@19
?rf_free@@YGXPAX@Z	@44
?rf_get_device_number@@YGHPAG@Z	@6
?rf_get_model@@YGHGPAE0@Z	@7
?rf_get_snr@@YGHGPAE@Z	@8
?rf_halt@@YGHG@Z	@18
?rf_hltb@@YGHGK@Z	@35
?rf_init_com@@YGHHJ@Z	@4
?rf_init_device_number@@YGHG@Z	@5
?rf_init_sam@@YGHGE@Z	@10
?rf_init_type@@YGHGE@Z	@13
?rf_light@@YGHGE@Z	@42
?rf_request@@YGHGEPAG@Z	@15
?rf_sam_cos@@YGHGPAEE00@Z	@12
?rf_sam_rst@@YGHGPAE0@Z	@11
?rf_select@@YGHGPAEE0@Z	@17
?rf_sr176_protectblock@@YGHGE@Z	@51
?rf_sr176_readblock@@YGHGEPAE0@Z	@49
?rf_sr176_writeblock@@YGHGEPAE@Z	@50
?rf_srix4k_authenticate@@YGHGPAE00@Z	@54
?rf_srix4k_getuid@@YGHGPAE0@Z	@55
?rf_srix4k_readblock@@YGHGEPAE0@Z	@52
?rf_srix4k_writeblock@@YGHGEPAE@Z	@53
?rf_srix4k_writelockreg@@YGHGE@Z	@58
?rf_st_completion@@YGHG@Z	@48
?rf_st_select@@YGHGPAE@Z	@47
?rf_typea_rst@@YGHGEPAE0@Z	@30
?rf_typeb_cos@@YGHGEPAEE00@Z	@34
?rf_ul_select@@YGHGPAE0@Z	@56
?rf_ul_write@@YGHGEPAE@Z	@57
?smartcard_cos@@YGHGPAEE00@Z	@73
?smartcard_rst@@YGHGPAE0@Z	@72
